target datalayout = "e-m:e-p270:32:32-p271:32:32-p272:64:64-i64:64-i128:128-f80:128-n8:16:32:64-S128"
target triple = "x86_64-pc-linux-gnu"

; Function Attrs: nounwind uwtable
define dso_local void @index_concurrently_set_dead(i32 noundef %0, i32 noundef %1) #0 {
  %3 = alloca i32, align 4
  %4 = alloca i32, align 4
  %5 = alloca ptr, align 8
  %6 = alloca ptr, align 8
  store i32 %0, ptr %3, align 4
  store i32 %1, ptr %4, align 4
  call void @llvm.lifetime.start.p0(i64 8, ptr %5) #8
  call void @llvm.lifetime.start.p0(i64 8, ptr %6) #8
  %7 = load i32, ptr %3, align 4
  %8 = call ptr @table_open(i32 noundef %7, i32 noundef 4)
  store ptr %8, ptr %5, align 8
  %9 = load i32, ptr %4, align 4
  %10 = call ptr @index_open(i32 noundef %9, i32 noundef 4)
  store ptr %10, ptr %6, align 8
  %11 = load ptr, ptr %6, align 8
  call void @TransferPredicateLocksToHeapRelation(ptr noundef %11)
  %12 = load i32, ptr %4, align 4
  call void @index_set_state_flags(i32 noundef %12, i32 noundef 3)
  %13 = load ptr, ptr %5, align 8
  call void @CacheInvalidateRelcache(ptr noundef %13)
  %14 = load ptr, ptr %5, align 8
  call void @table_close(ptr noundef %14, i32 noundef 0)
  %15 = load ptr, ptr %6, align 8
  call void @index_close(ptr noundef %15, i32 noundef 0)
  call void @llvm.lifetime.end.p0(i64 8, ptr %6) #8
  call void @llvm.lifetime.end.p0(i64 8, ptr %5) #8
  ret void
}