; Function Attrs: nounwind uwtable
define dso_local void @index_concurrently_set_dead(i32 noundef %0, i32 noundef %1) local_unnamed_addr #0 {
  %3 = tail call ptr @table_open(i32 noundef %0, i32 noundef 4) #11
  %4 = tail call ptr @index_open(i32 noundef %1, i32 noundef 4) #11
  tail call void @TransferPredicateLocksToHeapRelation(ptr noundef %4) #11
  tail call void @index_set_state_flags(i32 noundef %1, i32 noundef 3)
  tail call void @CacheInvalidateRelcache(ptr noundef %3) #11
  tail call void @table_close(ptr noundef %3, i32 noundef 0) #11
  tail call void @index_close(ptr noundef %4, i32 noundef 0) #11
  ret void
}